target datalayout = "e-m:e-p270:32:32-p271:32:32-p272:64:64-i64:64-i128:128-f80:128-n8:16:32:64-S128"
target triple = "x86_64-pc-linux-gnu"

%struct._asn1_ctx_t = type { i32, i32, i8, ptr, ptr, ptr, ptr, ptr, %struct.anon.2, %struct.anon.5, %struct.anon.6, ptr }
%struct.anon.2 = type { i32, i8, i8, i8, ptr, ptr, i32, i32, ptr, ptr, ptr, %union.anon }
%union.anon = type { %struct.anon.3 }
%struct.anon.3 = type { ptr }
%struct.anon.5 = type { ptr, ptr, ptr }
%struct.anon.6 = type { i32, i8, ptr, i32, i32, ptr, ptr, ptr, %union.anon.7 }
%union.anon.7 = type { %struct.anon.8 }
%struct.anon.8 = type { ptr }

@hf_h248_term_wild_type = internal global i32 0, align 4
@hf_h248_term_wild_level = internal global i32 0, align 4
@hf_h248_term_wild_position = internal global i32 0, align 4
@ett_wildcard = internal global i32 0, align 4
@wild_term = internal global i32 0, align 4
@wild_card = internal global i8 -1, align 1

; Function Attrs: nounwind uwtable
define internal i32 @dissect_h248_WildcardField(i1 noundef zeroext %0, ptr noundef %1, i32 noundef %2, ptr noundef %3, ptr noundef %4, i32 noundef %5) #0 {
  %7 = alloca i8, align 1
  %8 = alloca ptr, align 8
  %9 = alloca i32, align 4
  %10 = alloca ptr, align 8
  %11 = alloca ptr, align 8
  %12 = alloca i32, align 4
  %13 = alloca ptr, align 8
  %14 = zext i1 %0 to i8
  store i8 %14, ptr %7, align 1
  store ptr %1, ptr %8, align 8
  store i32 %2, ptr %9, align 4
  store ptr %3, ptr %10, align 8
  store ptr %4, ptr %11, align 8
  store i32 %5, ptr %12, align 4
  %15 = load i8, ptr %7, align 1
  %16 = trunc i8 %15 to i1
  %17 = load ptr, ptr %10, align 8
  %18 = load ptr, ptr %11, align 8
  %19 = load ptr, ptr %8, align 8
  %20 = load i32, ptr %9, align 4
  %21 = load i32, ptr %12, align 4
  %22 = call i32 @dissect_ber_octet_string(i1 noundef zeroext %16, ptr noundef %17, ptr noundef %18, ptr noundef %19, i32 noundef %20, i32 noundef %21, ptr noundef %13)
  store i32 %22, ptr %9, align 4
  %23 = load ptr, ptr %10, align 8
  %24 = getelementptr inbounds %struct._asn1_ctx_t, ptr %23, i32 0, i32 4
  %25 = load ptr, ptr %24, align 8
  %26 = load i32, ptr @ett_wildcard, align 4
  %27 = call ptr @proto_item_add_subtree(ptr noundef %25, i32 noundef %26)
  store ptr %27, ptr %11, align 8
  %28 = load ptr, ptr %11, align 8
  %29 = load i32, ptr @hf_h248_term_wild_type, align 4
  %30 = load ptr, ptr %13, align 8
  %31 = call ptr @proto_tree_add_item(ptr noundef %28, i32 noundef %29, ptr noundef %30, i32 noundef 0, i32 noundef 1, i32 noundef 0)
  %32 = load ptr, ptr %11, align 8
  %33 = load i32, ptr @hf_h248_term_wild_level, align 4
  %34 = load ptr, ptr %13, align 8
  %35 = call ptr @proto_tree_add_item(ptr noundef %32, i32 noundef %33, ptr noundef %34, i32 noundef 0, i32 noundef 1, i32 noundef 0)
  %36 = load ptr, ptr %11, align 8
  %37 = load i32, ptr @hf_h248_term_wild_position, align 4
  %38 = load ptr, ptr %13, align 8
  %39 = call ptr @proto_tree_add_item(ptr noundef %36, i32 noundef %37, ptr noundef %38, i32 noundef 0, i32 noundef 1, i32 noundef 0)
  %40 = load ptr, ptr %13, align 8
  %41 = call zeroext i8 @tvb_get_guint8(ptr noundef %40, i32 noundef 0)
  %42 = zext i8 %41 to i32
  %43 = and i32 %42, 128
  %44 = icmp ne i32 %43, 0
  %45 = select i1 %44, i32 1, i32 2
  store i32 %45, ptr @wild_term, align 4
  %46 = load ptr, ptr %13, align 8
  %47 = call zeroext i8 @tvb_get_guint8(ptr noundef %46, i32 noundef 0)
  store i8 %47, ptr @wild_card, align 1
  %48 = load i32, ptr %9, align 4
  ret i32 %48
}