; Function Attrs: nounwind uwtable
define internal i32 @dissect_h248_WildcardField(i1 noundef zeroext %0, ptr noundef %1, i32 noundef %2, ptr noundef %3, ptr noundef %4, i32 noundef %5) #0 {
  %7 = alloca ptr, align 8
  %8 = call i32 @dissect_ber_octet_string(i1 noundef zeroext %0, ptr noundef %3, ptr noundef %4, ptr noundef %1, i32 noundef %2, i32 noundef %5, ptr noundef nonnull %7) #7
  %9 = getelementptr inbounds nuw i8, ptr %3, i64 24
  %10 = load ptr, ptr %9, align 8
  %11 = load i32, ptr @ett_wildcard, align 4
  %12 = call ptr @proto_item_add_subtree(ptr noundef %10, i32 noundef %11) #7
  %13 = load i32, ptr @hf_h248_term_wild_type, align 4
  %14 = load ptr, ptr %7, align 8
  %15 = call ptr @proto_tree_add_item(ptr noundef %12, i32 noundef %13, ptr noundef %14, i32 noundef 0, i32 noundef 1, i32 noundef 0) #7
  %16 = load i32, ptr @hf_h248_term_wild_level, align 4
  %17 = load ptr, ptr %7, align 8
  %18 = call ptr @proto_tree_add_item(ptr noundef %12, i32 noundef %16, ptr noundef %17, i32 noundef 0, i32 noundef 1, i32 noundef 0) #7
  %19 = load i32, ptr @hf_h248_term_wild_position, align 4
  %20 = load ptr, ptr %7, align 8
  %21 = call ptr @proto_tree_add_item(ptr noundef %12, i32 noundef %19, ptr noundef %20, i32 noundef 0, i32 noundef 1, i32 noundef 0) #7
  %22 = load ptr, ptr %7, align 8
  %23 = call zeroext i8 @tvb_get_guint8(ptr noundef %22, i32 noundef 0) #7
  %.not = icmp sgt i8 %23, -1
  %24 = select i1 %.not, i32 2, i32 1
  store i32 %24, ptr @wild_term, align 4
  %25 = load ptr, ptr %7, align 8
  %26 = call zeroext i8 @tvb_get_guint8(ptr noundef %25, i32 noundef 0) #7
  store i8 %26, ptr @wild_card, align 1
  ret i32 %8
}